; Function Attrs: nofree norecurse nosync nounwind memory(read, inaccessiblemem: none) uwtable
define hidden i64 @nghttp2_bufs_len(ptr noundef readonly captures(none) %0) local_unnamed_addr #6 {
  %.067 = load ptr, ptr %0, align 8, !tbaa !30
  %.not8 = icmp eq ptr %.067, null
  br i1 %.not8, label %._crit_edge, label %.lr.ph

.lr.ph:                                           ; preds = %1, %.lr.ph
  %.0610 = phi ptr [ %.06, %.lr.ph ], [ %.067, %1 ]
  %.09 = phi i64 [ %9, %.lr.ph ], [ 0, %1 ]
  %2 = getelementptr inbounds nuw i8, ptr %.0610, i64 32
  %3 = load ptr, ptr %2, align 8, !tbaa !22
  %4 = getelementptr inbounds nuw i8, ptr %.0610, i64 24
  %5 = load ptr, ptr %4, align 8, !tbaa !20
  %6 = ptrtoint ptr %3 to i64
  %7 = ptrtoint ptr %5 to i64
  %8 = add i64 %.09, %6
  %9 = sub i64 %8, %7
  %.06 = load ptr, ptr %.0610, align 8, !tbaa !30
  %.not = icmp eq ptr %.06, null
  br i1 %.not, label %._crit_edge, label %.lr.ph, !llvm.loop !36

._crit_edge:                                      ; preds = %.lr.ph, %1
  %.0.lcssa = phi i64 [ 0, %1 ], [ %9, %.lr.ph ]
  ret i64 %.0.lcssa
}